; Function Attrs: mustprogress nounwind uwtable
define void @_ZNK4LIEF5MachO6Binary13objc_metadataEv(ptr dead_on_unwind noalias writable writeonly sret(%"class.std::unique_ptr.38") align 8 captures(none) initializes((0, 8)) %0, ptr noundef nonnull readnone align 8 captures(none) dereferenceable(488) %1) local_unnamed_addr #1 align 2 {
  %3 = alloca %"struct.spdlog::source_loc", align 8
  %4 = tail call noundef nonnull align 8 dereferenceable(16) ptr @_ZN4LIEF7logging6Logger8instanceEPKc(ptr noundef nonnull @.str.2) #24
  %5 = load ptr, ptr %4, align 8, !tbaa !3
  call void @llvm.lifetime.start.p0(i64 24, ptr nonnull %3)
  call void @llvm.memset.p0.i64(ptr noundef nonnull align 8 dereferenceable(24) %3, i8 0, i64 24, i1 false)
  tail call void @_ZN6spdlog6logger4log_IJEEEvNS_10source_locENS_5level10level_enumEN3fmt3v1017basic_string_viewIcEEDpOT_(ptr noundef nonnull align 8 dereferenceable(208) %5, ptr noundef nonnull byval(%"struct.spdlog::source_loc") align 8 %3, i32 noundef 4, ptr nonnull @.str, i64 126)
  call void @llvm.lifetime.end.p0(i64 24, ptr nonnull %3)
  store ptr null, ptr %0, align 8, !tbaa !11
  ret void
}